; Function Attrs: mustprogress nounwind willreturn uwtable
define void @Gia_ManHashStop(ptr noundef captures(none) initializes((80, 88), (96, 104)) %0) local_unnamed_addr #3 {
  %2 = getelementptr inbounds nuw i8, ptr %0, i64 96
  %3 = getelementptr inbounds nuw i8, ptr %0, i64 104
  %4 = load ptr, ptr %3, align 8, !tbaa !10
  %.not.i = icmp eq ptr %4, null
  br i1 %.not.i, label %Vec_IntErase.exit, label %5

5:                                                ; preds = %1
  tail call void @free(ptr noundef nonnull %4) #26
  store ptr null, ptr %3, align 8, !tbaa !10
  br label %Vec_IntErase.exit

Vec_IntErase.exit:                                ; preds = %1, %5
  %6 = getelementptr inbounds nuw i8, ptr %0, i64 100
  store i32 0, ptr %6, align 4, !tbaa !3
  store i32 0, ptr %2, align 8, !tbaa !40
  %7 = getelementptr inbounds nuw i8, ptr %0, i64 88
  %8 = load ptr, ptr %7, align 8, !tbaa !10
  %.not.i2 = icmp eq ptr %8, null
  br i1 %.not.i2, label %Vec_IntErase.exit3, label %9

9:                                                ; preds = %Vec_IntErase.exit
  tail call void @free(ptr noundef nonnull %8) #26
  store ptr null, ptr %7, align 8, !tbaa !10
  br label %Vec_IntErase.exit3

Vec_IntErase.exit3:                               ; preds = %Vec_IntErase.exit, %9
  %10 = getelementptr inbounds nuw i8, ptr %0, i64 80
  %11 = getelementptr inbounds nuw i8, ptr %0, i64 84
  store i32 0, ptr %11, align 4, !tbaa !3
  store i32 0, ptr %10, align 8, !tbaa !40
  ret void
}